; Function Attrs: mustprogress uwtable
define noundef i32 @_ZN8proxygen11HTTP1xCodec13onChunkHeaderEm(ptr nocapture noundef nonnull align 8 dereferenceable(428) %this, i64 noundef %len) local_unnamed_addr #3 align 2 personality ptr @__gxx_personality_v0 {
entry:
  %ref.tmp6 = alloca %"class.google::LogMessage", align 8
  %cmp.not = icmp eq i64 %len, 0
  br i1 %cmp.not, label %if.else, label %if.then

if.then:                                          ; preds = %entry
  %callback_ = getelementptr inbounds i8, ptr %this, i64 40
  %0 = load ptr, ptr %callback_, align 8
  %ingressTxnID_ = getelementptr inbounds i8, ptr %this, i64 48
  %1 = load i64, ptr %ingressTxnID_, align 8
  %vtable = load ptr, ptr %0, align 8
  %vfn = getelementptr inbounds i8, ptr %vtable, i64 40
  %2 = load ptr, ptr %vfn, align 8
  tail call void %2(ptr noundef nonnull align 8 dereferenceable(8) %0, i64 noundef %1, i64 noundef %len)
  br label %if.end

if.else:                                          ; preds = %entry
  %3 = load ptr, ptr @_ZZN8proxygen11HTTP1xCodec13onChunkHeaderEmE8vlocal__, align 8
  %cmp2 = icmp eq ptr %3, null
  br i1 %cmp2, label %cond.true, label %cond.end

cond.true:                                        ; preds = %if.else
  %call = tail call noundef zeroext i1 @_ZN6google11InitVLOG3__EPNS_8SiteFlagEPiPKci(ptr noundef nonnull @_ZZN8proxygen11HTTP1xCodec13onChunkHeaderEmE8vlocal__, ptr noundef nonnull @_ZN3fLI7FLAGS_vE, ptr noundef nonnull @.str.2, i32 noundef 5)
  br i1 %call, label %cond.false5, label %cleanup.done

cond.end:                                         ; preds = %if.else
  %4 = load i32, ptr %3, align 4
  %cmp3 = icmp sgt i32 %4, 4
  br i1 %cmp3, label %cond.false5, label %cleanup.done

cond.false5:                                      ; preds = %cond.true, %cond.end
  call void @_ZN6google10LogMessageC1EPKci(ptr noundef nonnull align 8 dereferenceable(96) %ref.tmp6, ptr noundef nonnull @.str.2, i32 noundef 1246)
  %call7 = invoke noundef nonnull align 8 dereferenceable(8) ptr @_ZN6google10LogMessage6streamEv(ptr noundef nonnull align 8 dereferenceable(96) %ref.tmp6)
          to label %invoke.cont unwind label %lpad

invoke.cont:                                      ; preds = %cond.false5
  %call9 = invoke noundef nonnull align 8 dereferenceable(8) ptr @_ZStlsISt11char_traitsIcEERSt13basic_ostreamIcT_ES5_PKc(ptr noundef nonnull align 8 dereferenceable(8) %call7, ptr noundef nonnull @.str.59)
          to label %invoke.cont8 unwind label %lpad

invoke.cont8:                                     ; preds = %invoke.cont
  %call11 = invoke noundef nonnull align 8 dereferenceable(8) ptr @_ZStlsISt11char_traitsIcEERSt13basic_ostreamIcT_ES5_PKc(ptr noundef nonnull align 8 dereferenceable(8) %call9, ptr noundef nonnull @.str.60)
          to label %cleanup.action unwind label %lpad

cleanup.action:                                   ; preds = %invoke.cont8
  call void @_ZN6google10LogMessageD1Ev(ptr noundef nonnull align 8 dereferenceable(96) %ref.tmp6) #25
  br label %cleanup.done

cleanup.done:                                     ; preds = %cond.true, %cond.end, %cleanup.action
  %inRecvLastChunk_ = getelementptr inbounds i8, ptr %this, i64 424
  %bf.load = load i32, ptr %inRecvLastChunk_, align 8
  %bf.set = or i32 %bf.load, 262144
  store i32 %bf.set, ptr %inRecvLastChunk_, align 8
  br label %if.end

lpad:                                             ; preds = %invoke.cont8, %invoke.cont, %cond.false5
  %5 = landingpad { ptr, i32 }
          cleanup
  call void @_ZN6google10LogMessageD1Ev(ptr noundef nonnull align 8 dereferenceable(96) %ref.tmp6) #25
  resume { ptr, i32 } %5

if.end:                                           ; preds = %cleanup.done, %if.then
  ret i32 0
}